target datalayout = "e-m:e-p270:32:32-p271:32:32-p272:64:64-i64:64-i128:128-f80:128-n8:16:32:64-S128"
target triple = "x86_64-unknown-linux-gnu"

%"class.std::set.0" = type { %"class.std::_Rb_tree.1" }
%"class.std::_Rb_tree.1" = type { %"struct.std::_Rb_tree<QuantLib::Observer *, QuantLib::Observer *, std::_Identity<QuantLib::Observer *>, std::less<QuantLib::Observer *>>::_Rb_tree_impl" }
%"struct.std::_Rb_tree<QuantLib::Observer *, QuantLib::Observer *, std::_Identity<QuantLib::Observer *>, std::less<QuantLib::Observer *>>::_Rb_tree_impl" = type { [8 x i8], %"struct.std::_Rb_tree_header" }
%"struct.std::_Rb_tree_header" = type { %"struct.std::_Rb_tree_node_base", i64 }
%"struct.std::_Rb_tree_node_base" = type { i32, ptr, ptr, ptr }
%"class.std::set" = type { %"class.std::_Rb_tree" }
%"class.std::_Rb_tree" = type { %"struct.std::_Rb_tree<boost::shared_ptr<QuantLib::Observable>, boost::shared_ptr<QuantLib::Observable>, std::_Identity<boost::shared_ptr<QuantLib::Observable>>, std::less<boost::shared_ptr<QuantLib::Observable>>>::_Rb_tree_impl" }
%"struct.std::_Rb_tree<boost::shared_ptr<QuantLib::Observable>, boost::shared_ptr<QuantLib::Observable>, std::_Identity<boost::shared_ptr<QuantLib::Observable>>, std::less<boost::shared_ptr<QuantLib::Observable>>>::_Rb_tree_impl" = type { [8 x i8], %"struct.std::_Rb_tree_header" }
%"class.boost::detail::shared_count" = type { ptr }
%"class.QuantLib::Observable" = type { ptr, %"class.std::set.0" }
%"class.std::__cxx11::basic_string" = type { %"struct.std::__cxx11::basic_string<char>::_Alloc_hider", i64, %union.anon }
%"struct.std::__cxx11::basic_string<char>::_Alloc_hider" = type { ptr }
%union.anon = type { i64, [8 x i8] }
%"class.QuantLib::Date" = type { i64 }
%"class.QuantLib::InterestRateIndex" = type { %"class.QuantLib::Index", %"class.std::__cxx11::basic_string", %"class.QuantLib::Period", i32, %"class.QuantLib::Currency", %"class.QuantLib::DayCounter", %"class.std::__cxx11::basic_string", %"class.QuantLib::Calendar" }
%"class.QuantLib::Index" = type { %"class.QuantLib::Observable", %"class.QuantLib::Observer" }
%"class.QuantLib::Observer" = type { ptr, %"class.std::set" }
%"class.QuantLib::Period" = type { i32, i32 }
%"class.QuantLib::Currency" = type { %"class.boost::shared_ptr.15" }
%"class.boost::shared_ptr.15" = type { ptr, %"class.boost::detail::shared_count" }
%"class.QuantLib::DayCounter" = type { %"class.boost::shared_ptr.16" }
%"class.boost::shared_ptr.16" = type { ptr, %"class.boost::detail::shared_count" }
%"class.QuantLib::Calendar" = type { %"class.boost::shared_ptr.17" }
%"class.boost::shared_ptr.17" = type { ptr, %"class.boost::detail::shared_count" }
%"class.QuantLib::IborIndex" = type <{ %"class.QuantLib::InterestRateIndex", i32, [4 x i8], %"class.QuantLib::Handle", i8, [7 x i8] }>
%"class.QuantLib::Handle" = type { %"class.boost::shared_ptr.18" }
%"class.boost::shared_ptr.18" = type { ptr, %"class.boost::detail::shared_count" }

; Function Attrs: mustprogress uwtable
define i64 @_ZNK8QuantLib9IborIndex12maturityDateERKNS_4DateE(ptr noundef nonnull align 8 dereferenceable(265) %this, ptr noundef nonnull align 8 dereferenceable(8) %valueDate) unnamed_addr #2 align 2 personality ptr @__gxx_personality_v0 {
entry:
  %retval = alloca %"class.QuantLib::Date", align 8
  %this.addr = alloca ptr, align 8
  %valueDate.addr = alloca ptr, align 8
  %ref.tmp = alloca %"class.QuantLib::Calendar", align 8
  %exn.slot = alloca ptr, align 8
  %ehselector.slot = alloca i32, align 4
  store ptr %this, ptr %this.addr, align 8, !tbaa !3
  store ptr %valueDate, ptr %valueDate.addr, align 8, !tbaa !3
  %this1 = load ptr, ptr %this.addr, align 8
  call void @llvm.lifetime.start.p0(i64 16, ptr %ref.tmp) #13
  %vtable = load ptr, ptr %this1, align 8, !tbaa !12
  %vfn = getelementptr inbounds ptr, ptr %vtable, i64 3
  %0 = load ptr, ptr %vfn, align 8
  call void %0(ptr dead_on_unwind writable sret(%"class.QuantLib::Calendar") align 8 %ref.tmp, ptr noundef nonnull align 8 dereferenceable(240) %this1)
  %1 = load ptr, ptr %valueDate.addr, align 8, !tbaa !3
  %tenor_ = getelementptr inbounds nuw %"class.QuantLib::InterestRateIndex", ptr %this1, i32 0, i32 2
  %convention_ = getelementptr inbounds nuw %"class.QuantLib::IborIndex", ptr %this1, i32 0, i32 1
  %2 = load i32, ptr %convention_, align 8, !tbaa !25
  %endOfMonth_ = getelementptr inbounds nuw %"class.QuantLib::IborIndex", ptr %this1, i32 0, i32 4
  %3 = load i8, ptr %endOfMonth_, align 8, !tbaa !58, !range !56, !noundef !57
  %loadedv = trunc i8 %3 to i1
  %call = invoke i64 @_ZNK8QuantLib8Calendar7advanceERKNS_4DateERKNS_6PeriodENS_21BusinessDayConventionEb(ptr noundef nonnull align 8 dereferenceable(16) %ref.tmp, ptr noundef nonnull align 8 dereferenceable(8) %1, ptr noundef nonnull align 4 dereferenceable(8) %tenor_, i32 noundef %2, i1 noundef zeroext %loadedv)
          to label %invoke.cont unwind label %lpad

invoke.cont:                                      ; preds = %entry
  %coerce.dive = getelementptr inbounds nuw %"class.QuantLib::Date", ptr %retval, i32 0, i32 0
  store i64 %call, ptr %coerce.dive, align 8
  call void @_ZN8QuantLib8CalendarD2Ev(ptr noundef nonnull align 8 dereferenceable(16) %ref.tmp) #13
  call void @llvm.lifetime.end.p0(i64 16, ptr %ref.tmp) #13
  %coerce.dive2 = getelementptr inbounds nuw %"class.QuantLib::Date", ptr %retval, i32 0, i32 0
  %4 = load i64, ptr %coerce.dive2, align 8
  ret i64 %4

lpad:                                             ; preds = %entry
  %5 = landingpad { ptr, i32 }
          cleanup
  %6 = extractvalue { ptr, i32 } %5, 0
  store ptr %6, ptr %exn.slot, align 8
  %7 = extractvalue { ptr, i32 } %5, 1
  store i32 %7, ptr %ehselector.slot, align 4
  call void @_ZN8QuantLib8CalendarD2Ev(ptr noundef nonnull align 8 dereferenceable(16) %ref.tmp) #13
  call void @llvm.lifetime.end.p0(i64 16, ptr %ref.tmp) #13
  br label %eh.resume

eh.resume:                                        ; preds = %lpad
  %exn = load ptr, ptr %exn.slot, align 8
  %sel = load i32, ptr %ehselector.slot, align 4
  %lpad.val = insertvalue { ptr, i32 } poison, ptr %exn, 0
  %lpad.val3 = insertvalue { ptr, i32 } %lpad.val, i32 %sel, 1
  resume { ptr, i32 } %lpad.val3
}